ccollections
OrderedDict
p0
((lp1
(lp2
S'model'
p3
a(dp4
S'experiment'
p5
(dp6
S'rip'
p7
(dp8
S'branch_time_gregory'
p9
g9
sS'branch_time_comp'
p10
g10
sS'branch_time_relative'
p11
g11
sS'creation_date'
p12
S''
p13
sS'parent_exp_rip'
p14
S'parent_exp.rip'
p15
sS'valid'
p16
S'valid_method'
p17
sS'tracking_id'
p18
g13
sssaa(lp19
S'ACCESS1-0'
p20
a(dp21
S'historical'
p22
(dp23
S'r1i1p1'
p24
(dp25
g9
I300
sg10
S'0300-1-1 0:0:0.0'
p26
sg11
I109207
sg12
g13
sg14
S'piControl.r1i1p1'
p27
sg16
S'Gregory'
p28
sg18
g13
sssaa(lp29
S'ACCESS1-3'
p30
a(dp31
S'historical'
p32
(dp33
S'r1i1p1'
p34
(dp35
g9
I250
sg10
S'0250-1-1 0:0:0.0'
p36
sg11
I90945
sg12
g13
sg14
g27
sg16
S'Gleckler'
p37
sg18
g13
sssaa(lp38
S'BNU-ESM'
p39
a(dp40
S'historical'
p41
(dp42
S'r1i1p1'
p43
(dp44
g9
I1850
sg10
S'1850-1-1 0:0:0.0'
p45
sg11
g13
sg12
g13
sg14
g27
sg16
g37
sg18
g13
sssaa(lp46
S'CCSM4'
p47
a(dp48
S'historical'
p49
(dp50
S'r2i1p1'
p51
(dp52
g9
g13
sg10
S'1031-1-1 0:0:0.0'
p53
sg11
I376315
sg12
g13
sg14
g27
sg16
S'Gleckler; www.cesm.ucar.edu/CMIP5/errata/branch_times.html'
p54
sg18
g13
ssS'r1i1p1'
p55
(dp56
g9
I937
sg10
S'0937-1-1 0:0:0.0'
p57
sg11
I342005
sg12
g13
sg14
g27
sg16
S'Gregory; www.cesm.ucar.edu/CMIP5/errata/branch_times.html'
p58
sg18
g13
ssS'r4i1p1'
p59
(dp60
g9
g13
sg10
S'0893-1-1 0:0:0.0'
p61
sg11
I325945
sg12
g13
sg14
g27
sg16
g54
sg18
g13
ssS'r3i1p1'
p62
(dp63
g9
g13
sg10
S'0863-1-1 0:0:0.0'
p64
sg11
I314995
sg12
g13
sg14
g27
sg16
g54
sg18
g13
ssS'r6i1p1'
p65
(dp66
g9
g13
sg10
S'0953-1-1 0:0:0.0'
p67
sg11
I347845
sg12
g13
sg14
g27
sg16
g54
sg18
g13
ssS'r5i1p1'
p68
(dp69
g9
g13
sg10
S'0983-1-1 0:0:0.0'
p70
sg11
I358795
sg12
g13
sg14
g27
sg16
g54
sg18
g13
sssaa(lp71
S'CESM1-BGC'
p72
a(dp73
S'historical'
p74
(dp75
S'r1i1p1'
p76
(dp77
g9
g13
sg10
S'0151-1-1 0:0:0.0'
p78
sg11
I55115
sg12
g13
sg14
g27
sg16
S'Gary Strand (cesm_data@); www.cesm.ucar.edu/CMIP5/errata/branch_times.html'
p79
sg18
g13
sssaa(lp80
S'CESM1-CAM5'
p81
a(dp82
S'historical'
p83
(dp84
S'r2i1p1'
p85
(dp86
g9
g13
sg10
S'0232-1-1 0:0:0.0'
p87
sg11
I84680
sg12
g13
sg14
g27
sg16
g79
sg18
g13
ssS'r1i1p1'
p88
(dp89
g9
g13
sg10
S'0225-1-1 0:0:0.0'
p90
sg11
I82125
sg12
g13
sg14
g27
sg16
g79
sg18
g13
ssS'r3i1p1'
p91
(dp92
g9
g13
sg10
S'0320-1-1 0:0:0.0'
p93
sg11
I116800
sg12
g13
sg14
g27
sg16
g79
sg18
g13
sssaa(lp94
S'CESM1-CAM5-1-FV2'
p95
a(dp96
S'historical'
p97
(dp98
S'r2i1p1'
p99
(dp100
g9
g13
sg10
S'0070-1-1 0:0:0.0'
p101
sg11
g13
sg12
g13
sg14
g27
sg16
S'Gary Strand (cesm_data@); PNNL data so limited info available'
p102
sg18
g13
ssS'r1i1p1'
p103
(dp104
g9
g13
sg10
S'0102-1-1 0:0:0.0'
p105
sg11
g13
sg12
g13
sg14
g27
sg16
g102
sg18
g13
ssS'r4i1p1'
p106
(dp107
g9
g13
sg10
S'0052-1-1 0:0:0.0'
p108
sg11
g13
sg12
g13
sg14
g27
sg16
g102
sg18
g13
ssS'r3i1p1'
p109
(dp110
g9
g13
sg10
S'0051-1-1 0:0:0.0'
p111
sg11
g13
sg12
g13
sg14
g27
sg16
g102
sg18
g13
sssaa(lp112
S'CESM1-FASTCHEM'
p113
a(dp114
S'historical'
p115
(dp116
S'r2i1p1'
p117
(dp118
g9
g13
sg10
S'0150-1-1 0:0:0.0'
p119
sg11
I54750
sg12
g13
sg14
g27
sg16
g79
sg18
g13
ssS'r1i1p1'
p120
(dp121
g9
g13
sg10
S'0086-1-1 0:0:0.0'
p122
sg11
I31390
sg12
g13
sg14
g27
sg16
g79
sg18
g13
ssS'r3i1p1'
p123
(dp124
g9
g13
sg10
g36
sg11
I91250
sg12
g13
sg14
g27
sg16
g79
sg18
g13
sssaa(lp125
S'CESM1-WACCM'
p126
a(dp127
S'historical'
p128
(dp129
S'r2i1p1'
p130
(dp131
g9
g13
sg10
S'1955-1-1 0:0:0.0'
p132
sg11
I713575
sg12
g13
sg14
g27
sg16
g79
sg18
g13
ssS'r1i1p1'
p133
(dp134
g9
g13
sg10
S'0156-1-1 0:0:0.0'
p135
sg11
I56940
sg12
g13
sg14
g27
sg16
g79
sg18
g13
ssS'r4i1p1'
p136
(dp137
g9
g13
sg10
g132
sg11
I713575
sg12
g13
sg14
g27
sg16
g79
sg18
g13
ssS'r3i1p1'
p138
(dp139
g9
g13
sg10
g132
sg11
I713575
sg12
g13
sg14
g27
sg16
g79
sg18
g13
sssaa(lp140
S'CMCC-CESM'
p141
a(dp142
S'historical'
p143
(dp144
S'r1i1p1'
p145
(dp146
g9
g13
sg10
S'4324-1-1 0:0:0.0'
p147
sg11
g13
sg12
g13
sg14
g27
sg16
S'Gleckler - pathology in 2nd half of simulation'
p148
sg18
g13
sssaa(lp149
S'CMCC-CM'
p150
a(dp151
S'historical'
p152
(dp153
S'r1i1p1'
p154
(dp155
g9
I1849
sg10
S'1849-12-21 0:0:0.0'
p156
sg11
I109562
sg12
g13
sg14
g27
sg16
g37
sg18
g13
sssaa(lp157
S'CMCC-CMS'
p158
a(dp159
S'historical'
p160
(dp161
S'r1i1p1'
p162
(dp163
g9
I3684
sg10
S'3684-1-1 0:0:0.0'
p164
sg11
g13
sg12
g13
sg14
g27
sg16
g28
sg18
g13
sssaa(lp165
S'CNRM-CM5'
p166
a(dp167
S'historical'
p168
(dp169
S'r7i1p1'
p170
(dp171
g9
g13
sg10
S'2200-1-1 0:0:0.0'
p172
sg11
I127835
sg12
g13
sg14
g27
sg16
g37
sg18
g13
ssS'r9i1p1'
p173
(dp174
g9
g13
sg10
S'2300-1-2 0:0:0.0'
p175
sg11
I164359
sg12
g13
sg14
g27
sg16
g37
sg18
g13
ssS'r2i1p1'
p176
(dp177
g9
g13
sg10
S'1950-1-1 0:0:0.0'
p178
sg11
I36524
sg12
g13
sg14
g27
sg16
g37
sg18
g13
ssS'r1i1p1'
p179
(dp180
g9
I2250
sg10
S'2250-1-1 0:0:0.0'
p181
sg11
I146097
sg12
g13
sg14
g27
sg16
g37
sg18
g13
ssS'r10i1p1'
p182
(dp183
g9
g13
sg10
S'2350-1-1 0:0:0.0'
p184
sg11
I182621
sg12
g13
sg14
g27
sg16
g37
sg18
g13
ssS'r4i1p1'
p185
(dp186
g9
g13
sg10
S'2050-1-1 0:0:0.0'
p187
sg11
I73049
sg12
g13
sg14
g27
sg16
g37
sg18
g13
ssS'r3i1p1'
p188
(dp189
g9
g13
sg10
S'2000-1-2 0:0:0.0'
p190
sg11
I54787
sg12
g13
sg14
g27
sg16
g37
sg18
g13
ssS'r6i1p1'
p191
(dp192
g9
g13
sg10
S'2150-1-1 0:0:0.0'
p193
sg11
I109573
sg12
g13
sg14
g27
sg16
g37
sg18
g13
ssS'r5i1p1'
p194
(dp195
g9
g13
sg10
S'2100-1-1 0:0:0.0'
p196
sg11
I91311
sg12
g13
sg14
g27
sg16
g37
sg18
g13
ssS'r8i1p1'
p197
(dp198
g9
g13
sg10
g45
sg11
I0
sg12
g13
sg14
g27
sg16
g37
sg18
g13
sssaa(lp199
S'CSIRO-Mk3-6-0'
p200
a(dp201
S'historical'
p202
(dp203
S'r7i1p1'
p204
(dp205
g9
I153
sg10
S'0153-1-1 0:0:0.0'
p206
sg11
I55480
sg12
g13
sg14
g27
sg16
g28
sg18
g13
ssS'r9i1p1'
p207
(dp208
g9
I186
sg10
S'0186-1-1 0:0:0.0'
p209
sg11
I67525
sg12
g13
sg14
g27
sg16
g28
sg18
g13
ssS'r2i1p1'
p210
(dp211
g9
I92
sg10
S'0092-1-1 0:0:0.0'
p212
sg11
I33215
sg12
g13
sg14
g27
sg16
g28
sg18
g13
ssS'r1i1p1'
p213
(dp214
g9
I81
sg10
S'0081-1-1 0:0:0.0'
p215
sg11
I29200
sg12
g13
sg14
g27
sg16
g28
sg18
g13
ssS'r10i1p1'
p216
(dp217
g9
I200
sg10
S'0200-1-1 0:0:0.0'
p218
sg11
I72635
sg12
g13
sg14
g27
sg16
g28
sg18
g13
ssS'r4i1p1'
p219
(dp220
g9
I117
sg10
S'0117-1-1 0:0:0.0'
p221
sg11
I42340
sg12
g13
sg14
g27
sg16
g28
sg18
g13
ssS'r3i1p1'
p222
(dp223
g9
I104
sg10
S'0104-1-1 0:0:0.0'
p224
sg11
I37595
sg12
g13
sg14
g27
sg16
g28
sg18
g13
ssS'r6i1p1'
p225
(dp226
g9
I138
sg10
S'0138-1-1 0:0:0.0'
p227
sg11
I50005
sg12
g13
sg14
g27
sg16
g28
sg18
g13
ssS'r5i1p1'
p228
(dp229
g9
I127
sg10
S'0127-1-1 0:0:0.0'
p230
sg11
I45990
sg12
g13
sg14
g27
sg16
g28
sg18
g13
ssS'r8i1p1'
p231
(dp232
g9
I169
sg10
S'0169-1-1 0:0:0.0'
p233
sg11
I61320
sg12
g13
sg14
g27
sg16
g28
sg18
g13
sssaa(lp234
S'CanESM2'
p235
a(dp236
S'historical'
p237
(dp238
S'r2i1p1'
p239
(dp240
g9
I2271
sg10
S'2271-1-1 0:0:0.0'
p241
sg11
I153665
sg12
g13
sg14
g27
sg16
g37
sg18
g13
ssS'r1i1p1'
p242
(dp243
g9
I2321
sg10
S'2321-1-1 0:0:0.0'
p244
sg11
I171915
sg12
g13
sg14
g27
sg16
g37
sg18
g13
ssS'r4i1p1'
p245
(dp246
g9
I2171
sg10
S'2171-1-1 0:0:0.0'
p247
sg11
I117165
sg12
g13
sg14
g27
sg16
g37
sg18
g13
ssS'r3i1p1'
p248
(dp249
g9
I2221
sg10
S'2221-1-1 0:0:0.0'
p250
sg11
I135415
sg12
g13
sg14
g27
sg16
g37
sg18
g13
ssS'r5i1p1'
p251
(dp252
g9
I2121
sg10
S'2121-1-1 0:0:0.0'
p253
sg11
I98915
sg12
g13
sg14
g27
sg16
g37
sg18
g13
sssaa(lp254
S'EC-EARTH'
p255
a(dp256
S'historical'
p257
(dp258
S'r7i1p1'
p259
(dp260
g9
g13
sg10
S'2125-1-1 0:0:0.0'
p261
sg11
g13
sg12
g13
sg14
g27
sg16
g13
sg18
g13
ssS'r14i1p1'
p262
(dp263
g9
g13
sg10
g261
sg11
g13
sg12
g13
sg14
g27
sg16
g13
sg18
g13
ssS'r9i1p1'
p264
(dp265
g9
g13
sg10
g261
sg11
g13
sg12
g13
sg14
g27
sg16
g13
sg18
g13
ssS'r13i1p1'
p266
(dp267
g9
g13
sg10
g261
sg11
g13
sg12
g13
sg14
g27
sg16
g13
sg18
g13
ssS'r11i1p1'
p268
(dp269
g9
g13
sg10
g181
sg11
g13
sg12
g13
sg14
g27
sg16
g13
sg18
g13
ssS'r2i1p1'
p270
(dp271
g9
g13
sg10
g261
sg11
g13
sg12
g13
sg14
g27
sg16
g13
sg18
g13
ssS'r1i1p1'
p272
(dp273
g9
g13
sg10
g261
sg11
g13
sg12
g13
sg14
g27
sg16
g13
sg18
g13
ssS'r12i1p1'
p274
(dp275
g9
g13
sg10
g261
sg11
g13
sg12
g13
sg14
g27
sg16
g13
sg18
g13
ssS'r10i1p1'
p276
(dp277
g9
g13
sg10
g261
sg11
g13
sg12
g13
sg14
g27
sg16
g13
sg18
g13
ssS'r3i1p1'
p278
(dp279
g9
g13
sg10
g261
sg11
g13
sg12
g13
sg14
g27
sg16
g13
sg18
g13
ssS'r6i1p1'
p280
(dp281
g9
g13
sg10
g261
sg11
g13
sg12
g13
sg14
g27
sg16
g13
sg18
g13
ssS'r5i1p1'
p282
(dp283
g9
g13
sg10
g261
sg11
g13
sg12
g13
sg14
g27
sg16
g13
sg18
g13
ssS'r8i1p1'
p284
(dp285
g9
g13
sg10
g261
sg11
g13
sg12
g13
sg14
g27
sg16
g13
sg18
g13
sssaa(lp286
S'FGOALS-g2'
p287
a(dp288
S'historical'
p289
(dp290
S'r2i1p1'
p291
(dp292
g9
I500
sg10
S'0500-1-1 0:0:0.0'
p293
sg11
I182135
sg12
g13
sg14
g27
sg16
g28
sg18
g13
ssS'r4i1p1'
p294
(dp295
g9
I500
sg10
S'0550-1-1 0:0:0.0'
p296
sg11
I200385
sg12
g13
sg14
g27
sg16
g28
sg18
g13
ssS'r3i1p1'
p297
(dp298
g9
I520
sg10
S'0520-1-1 0:0:0.0'
p299
sg11
I189435
sg12
g13
sg14
g27
sg16
g28
sg18
g13
ssS'r5i1p1'
p300
(dp301
g9
I500
sg10
g293
sg11
I182135
sg12
g13
sg14
g27
sg16
g28
sg18
g13
sssaa(lp302
S'FGOALS-s2'
p303
a(dp304
S'1pctCO2'
p305
(dp306
S'r1i1p1'
p307
(dp308
g9
g13
sg10
g45
sg11
g13
sg12
g13
sg14
g27
sg16
S'Mark Zelinka 130509; baoqing@mail.iap.ac.cn'
p309
sg18
g13
sssS'historical'
p310
(dp311
S'r2i1p1'
p312
(dp313
g9
g13
sg10
S'1853-8-4 0:0:0.0'
p314
sg11
I1310
sg12
g13
sg14
g27
sg16
g37
sg18
g13
ssS'r1i1p1'
p315
(dp316
g9
I1853
sg10
S'1853-7-25 0:0:0.0'
p317
sg11
I1300
sg12
g13
sg14
g27
sg16
g37
sg18
g13
ssS'r3i1p1'
p318
(dp319
g9
g13
sg10
S'1853-8-14 0:0:0.0'
p320
sg11
I1320
sg12
g13
sg14
g27
sg16
g37
sg18
g13
sssS'abrupt4xCO2'
p321
(dp322
S'r1i1p1'
p323
(dp324
g9
g13
sg10
g45
sg11
g13
sg12
g13
sg14
g27
sg16
g309
sg18
g13
sssaa(lp325
S'FIO-ESM'
p326
a(dp327
S'historical'
p328
(dp329
S'r2i1p1'
p330
(dp331
g9
g13
sg10
S'0651-1-1 0:0:0.0'
p332
sg11
g13
sg12
g13
sg14
g27
sg16
g13
sg18
g13
ssS'r1i1p1'
p333
(dp334
g9
g13
sg10
S'0701-1-1 0:0:0.0'
p335
sg11
g13
sg12
g13
sg14
g27
sg16
g13
sg18
g13
ssS'r3i1p1'
p336
(dp337
g9
g13
sg10
S'0401-1-1 0:0:0.0'
p338
sg11
g13
sg12
g13
sg14
g27
sg16
g37
sg18
g13
sssaa(lp339
S'GFDL-CM3'
p340
a(dp341
S'historical'
p342
(dp343
S'r2i1p1'
p344
(dp345
g9
g13
sg10
g111
sg11
I18250
sg12
g13
sg14
g27
sg16
g37
sg18
g13
ssS'r1i1p1'
p346
(dp347
g9
g13
sg10
S'0001-1-1 0:0:0.0'
p348
sg11
I0
sg12
g13
sg14
g27
sg16
g37
sg18
g13
ssS'r4i1p1'
p349
(dp350
g9
g13
sg10
g78
sg11
I54750
sg12
g13
sg14
g27
sg16
g37
sg18
g13
ssS'r3i1p1'
p351
(dp352
g9
g13
sg10
S'0101-1-1 0:0:0.0'
p353
sg11
I36500
sg12
g13
sg14
g27
sg16
g37
sg18
g13
ssS'r5i1p1'
p354
(dp355
g9
g13
sg10
S'0201-1-1 0:0:0.0'
p356
sg11
I73000
sg12
g13
sg14
g27
sg16
g37
sg18
g13
sssaa(lp357
S'GFDL-ESM2M'
p358
a(dp359
S'historical'
p360
(dp361
S'r1i1p1'
p362
(dp363
g9
g13
sg10
S'0162-1-1 0:0:0.0'
p364
sg11
g13
sg12
g13
sg14
S'historicalMisc.r1i1p1'
p365
sg16
g28
sg18
g13
sssaa(lp366
S'GISS-E2-H-CC'
p367
a(dp368
S'historical'
p369
(dp370
S'r1i1p1'
p371
(dp372
g9
I2081
sg10
S'2081-1-1 0:0:0.0'
p373
sg11
g13
sg12
g13
sg14
g27
sg16
g37
sg18
g13
sssaa(lp374
S'GISS-E2-H'
p375
a(dp376
S'1pctCO2'
p377
(dp378
S'r1i1p3'
p379
(dp380
g9
g13
sg10
S'2810-1-1 0:0:0.0'
p381
sg11
g13
sg12
g13
sg14
g27
sg16
S'Mark Zelinka 130506; kwok-wai.lo@nasa.gov'
p382
sg18
g13
ssS'r1i1p2'
p383
(dp384
g9
g13
sg10
g381
sg11
g13
sg12
g13
sg14
g27
sg16
g382
sg18
g13
ssS'r1i1p1'
p385
(dp386
g9
g13
sg10
S'2410-1-1 0:0:0.0'
p387
sg11
g13
sg12
g13
sg14
g27
sg16
g382
sg18
g13
sssS'historical'
p388
(dp389
S'r1i1p3'
p390
(dp391
g9
g13
sg10
S'2490-1-1 0:0:0.0'
p392
sg11
g13
sg12
g13
sg14
S'piControl.r1i1p3'
p393
sg16
g13
sg18
g13
ssS'r1i1p2'
p394
(dp395
g9
g13
sg10
g392
sg11
g13
sg12
g13
sg14
S'piControl.r1i1p2'
p396
sg16
g13
sg18
g13
ssS'r1i1p1'
p397
(dp398
g9
g13
sg10
g387
sg11
g13
sg12
g13
sg14
g27
sg16
g37
sg18
g13
ssS'r2i1p3'
p399
(dp400
g9
g13
sg10
S'2510-1-1 0:0:0.0'
p401
sg11
g13
sg12
g13
sg14
g393
sg16
g13
sg18
g13
ssS'r5i1p2'
p402
(dp403
g9
g13
sg10
S'2570-1-1 0:0:0.0'
p404
sg11
g13
sg12
g13
sg14
g396
sg16
g13
sg18
g13
ssS'r5i1p3'
p405
(dp406
g9
g13
sg10
g404
sg11
g13
sg12
g13
sg14
g393
sg16
g13
sg18
g13
ssS'r5i1p1'
p407
(dp408
g9
g13
sg10
g392
sg11
g13
sg12
g13
sg14
g27
sg16
g37
sg18
g13
ssS'r2i1p1'
p409
(dp410
g9
g13
sg10
S'2430-1-1 0:0:0.0'
p411
sg11
g13
sg12
g13
sg14
g27
sg16
g37
sg18
g13
ssS'r4i1p2'
p412
(dp413
g9
g13
sg10
S'2550-1-1 0:0:0.0'
p414
sg11
g13
sg12
g13
sg14
g396
sg16
g13
sg18
g13
ssS'r4i1p3'
p415
(dp416
g9
g13
sg10
g414
sg11
g13
sg12
g13
sg14
g393
sg16
g13
sg18
g13
ssS'r4i1p1'
p417
(dp418
g9
g13
sg10
S'2470-1-1 0:0:0.0'
p419
sg11
g13
sg12
g13
sg14
g27
sg16
g37
sg18
g13
ssS'r3i1p1'
p420
(dp421
g9
g13
sg10
S'2450-1-1 0:0:0.0'
p422
sg11
g13
sg12
g13
sg14
g27
sg16
g37
sg18
g13
ssS'r2i1p2'
p423
(dp424
g9
g13
sg10
g401
sg11
g13
sg12
g13
sg14
g396
sg16
g13
sg18
g13
ssS'r3i1p3'
p425
(dp426
g9
g13
sg10
S'2530-1-1 0:0:0.0'
p427
sg11
g13
sg12
g13
sg14
g393
sg16
g13
sg18
g13
ssS'r3i1p2'
p428
(dp429
g9
g13
sg10
g427
sg11
g13
sg12
g13
sg14
g396
sg16
g13
sg18
g13
sssS'abrupt4xCO2'
p430
(dp431
S'r1i1p3'
p432
(dp433
g9
g13
sg10
g381
sg11
g13
sg12
g13
sg14
g27
sg16
g382
sg18
g13
ssS'r1i1p2'
p434
(dp435
g9
g13
sg10
g381
sg11
g13
sg12
g13
sg14
g27
sg16
g382
sg18
g13
sssaa(lp436
S'GISS-E2-R-CC'
p437
a(dp438
S'historical'
p439
(dp440
S'r1i1p1'
p441
(dp442
g9
g13
sg10
g187
sg11
g13
sg12
g13
sg14
g27
sg16
g13
sg18
g13
sssaa(lp443
S'GISS-E2-R'
p444
a(dp445
S'1pctCO2'
p446
(dp447
S'r1i1p1'
p448
(dp449
g9
g13
sg10
S'3981-1-1 0:0:0.0'
p450
sg11
g13
sg12
g13
sg14
g27
sg16
g382
sg18
g13
sssS'historical'
p451
(dp452
S'r1i1p3'
p453
(dp454
g9
g13
sg10
S'3560-1-1 0:0:0.0'
p455
sg11
g13
sg12
g13
sg14
g27
sg16
g13
sg18
g13
ssS'r1i1p2'
p456
(dp457
g9
g13
sg10
S'3590-1-1 0:0:0.0'
p458
sg11
g13
sg12
g13
sg14
g27
sg16
g13
sg18
g13
ssS'r1i1p1'
p459
(dp460
g9
g13
sg10
g450
sg11
g13
sg12
g13
sg14
g27
sg16
g37
sg18
g13
ssS'r2i1p3'
p461
(dp462
g9
g13
sg10
S'3580-1-1 0:0:0.0'
p463
sg11
g13
sg12
g13
sg14
g27
sg16
g13
sg18
g13
ssS'r6i1p1'
p464
(dp465
g9
g13
sg10
S'4081-1-1 0:0:0.0'
p466
sg11
g13
sg12
g13
sg14
g27
sg16
g13
sg18
g13
ssS'r5i1p2'
p467
(dp468
g9
g13
sg10
S'3670-1-1 0:0:0.0'
p469
sg11
g13
sg12
g13
sg14
g27
sg16
g13
sg18
g13
ssS'r5i1p3'
p470
(dp471
g9
g13
sg10
S'3640-1-1 0:0:0.0'
p472
sg11
g13
sg12
g13
sg14
g27
sg16
g13
sg18
g13
ssS'r6i1p3'
p473
(dp474
g9
g13
sg10
S'3660-1-1 0:0:0.0'
p475
sg11
g13
sg12
g13
sg14
g27
sg16
g13
sg18
g13
ssS'r5i1p1'
p476
(dp477
g9
g13
sg10
S'4061-1-1 0:0:0.0'
p478
sg11
g13
sg12
g13
sg14
g27
sg16
g37
sg18
g13
ssS'r6i1p2'
p479
(dp480
g9
g13
sg10
S'3690-1-1 0:0:0.0'
p481
sg11
g13
sg12
g13
sg14
g27
sg16
g13
sg18
g13
ssS'r2i1p1'
p482
(dp483
g9
g13
sg10
S'4001-1-1 0:0:0.0'
p484
sg11
g13
sg12
g13
sg14
g27
sg16
g37
sg18
g13
ssS'r4i1p2'
p485
(dp486
g9
g13
sg10
S'3650-1-1 0:0:0.0'
p487
sg11
g13
sg12
g13
sg14
g27
sg16
g13
sg18
g13
ssS'r4i1p3'
p488
(dp489
g9
g13
sg10
S'3620-1-1 0:0:0.0'
p490
sg11
g13
sg12
g13
sg14
g27
sg16
g13
sg18
g13
ssS'r4i1p1'
p491
(dp492
g9
g13
sg10
S'4041-1-1 0:0:0.0'
p493
sg11
g13
sg12
g13
sg14
g27
sg16
g37
sg18
g13
ssS'r3i1p1'
p494
(dp495
g9
g13
sg10
S'4021-1-1 0:0:0.0'
p496
sg11
g13
sg12
g13
sg14
g27
sg16
g37
sg18
g13
ssS'r2i1p2'
p497
(dp498
g9
g13
sg10
S'3610-1-1 0:0:0.0'
p499
sg11
g13
sg12
g13
sg14
g27
sg16
g13
sg18
g13
ssS'r3i1p3'
p500
(dp501
g9
g13
sg10
S'3600-1-1 0:0:0.0'
p502
sg11
g13
sg12
g13
sg14
g27
sg16
g13
sg18
g13
ssS'r3i1p2'
p503
(dp504
g9
g13
sg10
S'3630-1-1 0:0:0.0'
p505
sg11
g13
sg12
g13
sg14
g27
sg16
g13
sg18
g13
sssaa(lp506
S'HadGEM2-AO'
p507
a(dp508
S'historical'
p509
(dp510
S'r1i1p1'
p511
(dp512
g9
g13
sg10
S'BLANK'
p513
sg11
g13
sg12
g13
sg14
g27
sg16
g13
sg18
g13
sssaa(lp514
S'HadGEM2-CC'
p515
a(dp516
S'historical'
p517
(dp518
S'r2i1p1'
p519
(dp520
g9
g13
sg10
S'1959-12-21 0:0:0.0'
p521
sg11
I36020
sg12
g13
sg14
g27
sg16
g37
sg18
g13
ssS'r1i1p1'
p522
(dp523
g9
I1859
sg10
S'1859-12-1 0:0:0.0'
p524
sg11
I0
sg12
g13
sg14
g27
sg16
g37
sg18
g13
ssS'r3i1p1'
p525
(dp526
g9
g13
sg10
S'1959-12-11 0:0:0.0'
p527
sg11
I36010
sg12
g13
sg14
g27
sg16
g37
sg18
g13
sssaa(lp528
S'HadGEM2-ES'
p529
a(dp530
S'historical'
p531
(dp532
S'r2i1p1'
p533
(dp534
g9
I1909
sg10
S'1909-12-1 0:0:0.0'
p535
sg11
I18000
sg12
g13
sg14
g27
sg16
g28
sg18
g13
ssS'r1i1p1'
p536
(dp537
g9
I1859
sg10
g524
sg11
I0
sg12
g13
sg14
g27
sg16
g37
sg18
g13
ssS'r4i1p1'
p538
(dp539
g9
I2009
sg10
S'2009-12-1 0:0:0.0'
p540
sg11
I54000
sg12
g13
sg14
g27
sg16
g28
sg18
g13
ssS'r3i1p1'
p541
(dp542
g9
I1859
sg10
S'1959-12-1 0:0:0.0'
p543
sg11
I36000
sg12
g13
sg14
g27
sg16
g37
sg18
g13
sssaa(lp544
S'IPSL-CM5A-LR'
p545
a(dp546
S'1pctCO2'
p547
(dp548
S'r1i1p1'
p549
(dp550
g9
I1850
sg10
g45
sg11
g13
sg12
g13
sg14
g27
sg16
S'Mark Zelinka 130507; sebastian.denvil@ipsl.jussieu.fr'
p551
sg18
g13
sssS'historical'
p552
(dp553
S'r2i1p1'
p554
(dp555
g9
I1860
sg10
S'1860-1-1 0:0:0.0'
p556
sg11
g13
sg12
g13
sg14
g27
sg16
g28
sg18
g13
ssS'r1i1p1'
p557
(dp558
g9
I1850
sg10
g45
sg11
g13
sg12
g13
sg14
g27
sg16
g28
sg18
g13
ssS'r4i1p1'
p559
(dp560
g9
I1985
sg10
S'1985-1-1 0:0:0.0'
p561
sg11
g13
sg12
g13
sg14
g27
sg16
g28
sg18
g13
ssS'r3i1p1'
p562
(dp563
g9
I1870
sg10
S'1870-1-1 0:0:0.0'
p564
sg11
g13
sg12
g13
sg14
g27
sg16
g28
sg18
g13
ssS'r6i1p1'
p565
(dp566
g9
g13
sg10
S'2010-1-1 0:0:0.0'
p567
sg11
g13
sg12
g13
sg14
g27
sg16
g13
sg18
g13
ssS'r5i1p1'
p568
(dp569
g9
g13
sg10
S'2000-1-1 0:0:0.0'
p570
sg11
g13
sg12
g13
sg14
g27
sg16
g13
sg18
g13
sssaa(lp571
S'IPSL-CM5A-MR'
p572
a(dp573
S'1pctCO2'
p574
(dp575
S'r1i1p1'
p576
(dp577
g9
I1850
sg10
g45
sg11
g13
sg12
g13
sg14
g27
sg16
g551
sg18
g13
sssS'historical'
p578
(dp579
S'r2i1p1'
p580
(dp581
g9
g13
sg10
g556
sg11
g13
sg12
g13
sg14
g27
sg16
g37
sg18
g13
ssS'r1i1p1'
p582
(dp583
g9
I1850
sg10
g45
sg11
g13
sg12
g13
sg14
g27
sg16
g28
sg18
g13
ssS'r3i1p1'
p584
(dp585
g9
g13
sg10
g564
sg11
g13
sg12
g13
sg14
g27
sg16
g37
sg18
g13
sssaa(lp586
S'IPSL-CM5B-LR'
p587
a(dp588
S'1pctCO2'
p589
(dp590
S'r1i1p1'
p591
(dp592
g9
g13
sg10
g45
sg11
g13
sg12
g13
sg14
g27
sg16
g551
sg18
g13
sssS'historical'
p593
(dp594
S'r1i1p1'
p595
(dp596
g9
I1850
sg10
g45
sg11
g13
sg12
g13
sg14
g27
sg16
g37
sg18
g13
sssaa(lp597
S'MIROC-ESM-CHEM'
p598
a(dp599
S'historical'
p600
(dp601
S'r1i1p1'
p602
(dp603
g9
I1850
sg10
g45
sg11
I1461
sg12
g13
sg14
g27
sg16
g28
sg18
g13
sssaa(lp604
S'MIROC-ESM'
p605
a(dp606
S'historical'
p607
(dp608
S'r2i1p1'
p609
(dp610
g9
g13
sg10
S'1820-1-1 0:0:0.0'
p611
sg11
I7304
sg12
g13
sg14
g27
sg16
g37
sg18
g13
ssS'r1i1p1'
p612
(dp613
g9
I1880
sg10
S'1880-1-1 0:0:0.0'
p614
sg11
I29219
sg12
g13
sg14
g27
sg16
g37
sg18
g13
ssS'r3i1p1'
p615
(dp616
g9
g13
sg10
g45
sg11
I18262
sg12
g13
sg14
g27
sg16
g37
sg18
g13
sssaa(lp617
S'MIROC4h'
p618
a(dp619
S'historical'
p620
(dp621
S'r2i1p1'
p622
(dp623
g9
I71
sg10
S'0071-1-1 0:0:0.0'
p624
sg11
I7300
sg12
g13
sg14
g27
sg16
g37
sg18
g13
ssS'r1i1p1'
p625
(dp626
g9
I91
sg10
S'0091-1-1 0:0:0.0'
p627
sg11
I14600
sg12
g13
sg14
g27
sg16
g37
sg18
g13
ssS'r3i1p1'
p628
(dp629
g9
I111
sg10
S'0111-1-1 0:0:0.0'
p630
sg11
I21900
sg12
g13
sg14
g27
sg16
g37
sg18
g13
sssaa(lp631
S'MIROC5'
p632
a(dp633
S'historical'
p634
(dp635
S'r2i1p1'
p636
(dp637
g9
I2081
sg10
g373
sg11
I29565
sg12
g13
sg14
g27
sg16
g37
sg18
g13
ssS'r1i1p1'
p638
(dp639
g9
I2411
sg10
S'2411-1-1 0:0:0.0'
p640
sg11
I150015
sg12
g13
sg14
g27
sg16
g28
sg18
g13
ssS'r4i1p1'
p641
(dp642
g9
g13
sg10
S'2281-1-1 0:0:0.0'
p643
sg11
I102565
sg12
g13
sg14
g27
sg16
g37
sg18
g13
ssS'r3i1p1'
p644
(dp645
g9
I2181
sg10
S'2181-1-1 0:0:0.0'
p646
sg11
I66065
sg12
g13
sg14
g27
sg16
g37
sg18
g13
ssS'r5i1p1'
p647
(dp648
g9
g13
sg10
S'2021-1-1 0:0:0.0'
p649
sg11
I7665
sg12
g13
sg14
g27
sg16
g37
sg18
g13
sssaa(lp650
S'MPI-ESM-LR'
p651
a(dp652
S'historical'
p653
(dp654
S'r2i1p1'
p655
(dp656
g9
I1980
sg10
S'1980-1-1 0:0:0.0'
p657
sg11
I47481
sg12
g13
sg14
g27
sg16
g28
sg18
g13
ssS'r1i1p1'
p658
(dp659
g9
I1880
sg10
g614
sg11
I10957
sg12
g13
sg14
g27
sg16
g28
sg18
g13
ssS'r3i1p1'
p660
(dp661
g9
I1921
sg10
S'1921-1-1 0:0:0.0'
p662
sg11
I25932
sg12
g13
sg14
g27
sg16
g28
sg18
g13
sssaa(lp663
S'MPI-ESM-MR'
p664
a(dp665
S'historical'
p666
(dp667
S'r1i1p1'
p668
(dp669
g9
I1850
sg10
g45
sg11
I0
sg12
g13
sg14
g27
sg16
g28
sg18
g13
sssaa(lp670
S'MPI-ESM-P'
p671
a(dp672
S'historical'
p673
(dp674
S'r2i1p1'
p675
(dp676
g9
I1850
sg10
g45
sg11
I0
sg12
g13
sg14
g27
sg16
g28
sg18
g13
sssaa(lp677
S'MRI-CGCM3'
p678
a(dp679
S'historical'
p680
(dp681
S'r4i1p2'
p682
(dp683
g9
I1890
sg10
S'1890-1-1 0:0:0.0'
p684
sg11
I14245
sg12
g13
sg14
g27
sg16
g28
sg18
g13
ssS'r2i1p1'
p685
(dp686
g9
I1980
sg10
g657
sg11
I47116
sg12
g13
sg14
g27
sg16
g28
sg18
g13
ssS'r1i1p1'
p687
(dp688
g9
I1950
sg10
g178
sg11
I36159
sg12
g13
sg14
g27
sg16
g28
sg18
g13
ssS'r3i1p1'
p689
(dp690
g9
I2010
sg10
g567
sg11
I58074
sg12
g13
sg14
g27
sg16
g28
sg18
g13
ssS'r5i1p2'
p691
(dp692
g9
I1920
sg10
S'1920-1-1 0:0:0.0'
p693
sg11
I25201
sg12
g13
sg14
g27
sg16
g28
sg18
g13
sssaa(lp694
S'NorESM1-M'
p695
a(dp696
S'historical'
p697
(dp698
S'r2i1p1'
p699
(dp700
g9
I730
sg10
S'0730-1-1 0:0:0.0'
p701
sg11
I266085
sg12
g13
sg14
g27
sg16
g28
sg18
g13
ssS'r1i1p1'
p702
(dp703
g9
I700
sg10
S'0700-1-1 0:0:0.0'
p704
sg11
I255135
sg12
g13
sg14
g27
sg16
g28
sg18
g13
ssS'r3i1p1'
p705
(dp706
g9
I760
sg10
S'0760-1-1 0:0:0.0'
p707
sg11
I277035
sg12
g13
sg14
g27
sg16
g28
sg18
g13
sssaa(lp708
S'bcc-csm1-1-m'
p709
a(dp710
S'1pctCO2'
p711
(dp712
S'r1i1p1'
p713
(dp714
g9
g13
sg10
S'0240-1-1 0:0:0.0'
p715
sg11
g13
sg12
g13
sg14
g27
sg16
S'Mark Zelinka 130503'
p716
sg18
g13
sssS'historical'
p717
(dp718
S'r2i1p1'
p719
(dp720
g9
g13
sg10
S'0270-1-1 0:0:0.0'
p721
sg11
g13
sg12
g13
sg14
g27
sg16
g13
sg18
g13
ssS'r1i1p1'
p722
(dp723
g9
g13
sg10
S'0344-1-1 0:0:0.0'
p724
sg11
g13
sg12
g13
sg14
g27
sg16
g13
sg18
g13
ssS'r3i1p1'
p725
(dp726
g9
g13
sg10
g26
sg11
g13
sg12
g13
sg14
g27
sg16
g13
sg18
g13
sssaa(lp727
S'bcc-csm1-1'
p728
a(dp729
S'1pctCO2'
p730
(dp731
S'r1i1p1'
p732
(dp733
g9
g13
sg10
S'0160-1-1 0:0:0.0'
p734
sg11
g13
sg12
g13
sg14
g27
sg16
g716
sg18
g13
sssS'historical'
p735
(dp736
S'r2i1p1'
p737
(dp738
g9
I160
sg10
g734
sg11
g13
sg12
g13
sg14
g27
sg16
g28
sg18
g13
ssS'r1i1p1'
p739
(dp740
g9
I470
sg10
S'0470-1-1 0:0:0.0'
p741
sg11
g13
sg12
g13
sg14
g27
sg16
g37
sg18
g13
ssS'r3i1p1'
p742
(dp743
g9
I460
sg10
S'0460-1-1 0:0:0.0'
p744
sg11
g13
sg12
g13
sg14
g27
sg16
g37
sg18
g13
sssaa(lp745
S'inmcm4'
p746
a(dp747
S'historical'
p748
(dp749
S'r1i1p1'
p750
(dp751
g9
I1850
sg10
g45
sg11
g13
sg12
g13
sg14
g27
sg16
g28
sg18
g13
sssaatp752
Rp753
.